; Function Attrs: mustprogress nofree norecurse nosync nounwind memory(argmem: readwrite) uwtable
define hidden void @_ZNK19OpenColorIO_v2_5dev19Renderer_xyY_TO_XYZ5applyEPKvPvl(ptr nonnull readnone align 8 captures(none) %0, ptr noundef readonly captures(none) %1, ptr noundef writeonly captures(none) %2, i64 noundef %3) unnamed_addr #13 align 2 {
  %5 = icmp sgt i64 %3, 0
  br i1 %5, label %.lr.ph, label %._crit_edge

._crit_edge:                                      ; preds = %.lr.ph, %4
  ret void

.lr.ph:                                           ; preds = %4, %.lr.ph
  %.030 = phi ptr [ %25, %.lr.ph ], [ %1, %4 ]
  %.02629 = phi ptr [ %26, %.lr.ph ], [ %2, %4 ]
  %.02728 = phi i64 [ %27, %.lr.ph ], [ 0, %4 ]
  %6 = load float, ptr %.030, align 4, !tbaa !13
  %7 = getelementptr inbounds nuw i8, ptr %.030, i64 4
  %8 = load float, ptr %7, align 4, !tbaa !13
  %9 = getelementptr inbounds nuw i8, ptr %.030, i64 8
  %10 = load float, ptr %9, align 4, !tbaa !13
  %11 = fcmp oeq float %8, 0.000000e+00
  %12 = fdiv float 1.000000e+00, %8
  %13 = select i1 %11, float 0.000000e+00, float %12
  %14 = fmul float %6, %10
  %15 = fmul float %14, %13
  %16 = fsub float 1.000000e+00, %6
  %17 = fsub float %16, %8
  %18 = fmul float %10, %17
  %19 = fmul float %18, %13
  store float %15, ptr %.02629, align 4, !tbaa !13
  %20 = getelementptr inbounds nuw i8, ptr %.02629, i64 4
  store float %10, ptr %20, align 4, !tbaa !13
  %21 = getelementptr inbounds nuw i8, ptr %.02629, i64 8
  store float %19, ptr %21, align 4, !tbaa !13
  %22 = getelementptr inbounds nuw i8, ptr %.030, i64 12
  %23 = load float, ptr %22, align 4, !tbaa !13
  %24 = getelementptr inbounds nuw i8, ptr %.02629, i64 12
  store float %23, ptr %24, align 4, !tbaa !13
  %25 = getelementptr inbounds nuw i8, ptr %.030, i64 16
  %26 = getelementptr inbounds nuw i8, ptr %.02629, i64 16
  %27 = add nuw nsw i64 %.02728, 1
  %exitcond.not = icmp eq i64 %27, %3
  br i1 %exitcond.not, label %._crit_edge, label %.lr.ph, !llvm.loop !121
}